Certificate:
    Data:
        Version: 3 (0x2)
        Serial Number: 1 (0x1)
    Signature Algorithm: sha1WithRSAEncryption
        Issuer: C=CN, ST=GX, L=GL, O=GXNU, OU=GXNU, CN=GXNU
        Validity
            Not Before: Apr  8 08:12:29 2013 GMT
            Not After : Apr  8 08:12:29 2014 GMT
        Subject: C=CN, ST=GX, O=GXNU, OU=GXNU, CN=GXNU
        Subject Public Key Info:
            Public Key Algorithm: rsaEncryption
                Public-Key: (1024 bit)
                Modulus:
                    00:b3:9c:8d:14:78:bd:18:be:1e:26:c3:83:1b:e2:
                    21:bc:67:6c:5a:88:34:65:0c:c6:21:bd:63:ac:8c:
                    5b:ec:4d:77:70:f1:03:b4:aa:39:70:69:56:9f:1f:
                    25:10:53:16:df:f3:9a:b0:fc:92:f9:70:fb:16:f2:
                    45:3e:00:ec:22:d4:32:4f:cc:b2:61:c7:0b:9b:fe:
                    37:50:18:dd:35:57:1e:80:b5:08:90:b3:55:fa:0f:
                    f3:a3:02:2f:25:db:cc:9e:fa:ee:46:82:52:da:8b:
                    18:de:32:ed:1a:1a:ec:98:75:e5:2f:dd:61:a0:af:
                    a7:87:a4:1e:32:03:87:a5:7b
                Exponent: 65537 (0x10001)
        X509v3 extensions:
            X509v3 Basic Constraints: 
                CA:FALSE
            Netscape Comment: 
                OpenSSL Generated Certificate
            X509v3 Subject Key Identifier: 
                AB:D5:BD:1F:3E:B7:64:9B:8C:E7:4C:DD:A8:FE:B5:D6:8B:E3:1D:50
            X509v3 Authority Key Identifier: 
                keyid:8E:16:F7:72:94:0E:64:F0:B4:16:C6:4A:28:42:4B:EE:33:BB:43:1F

    Signature Algorithm: sha1WithRSAEncryption
         60:ae:e8:63:7e:f2:27:96:15:6c:b6:15:ce:b7:79:10:0f:f1:
         cc:98:86:d3:b8:38:ce:ab:b2:56:ee:66:61:a6:1c:57:6a:48:
         3b:de:f1:d8:07:31:1c:be:85:a0:15:61:9c:68:5b:51:00:51:
         f1:d7:59:ac:09:24:6e:2c:6c:03:35:af:7f:b6:6b:84:77:f4:
         2a:20:1c:14:9d:72:cd:32:dc:ba:29:4e:71:18:cd:d5:ca:b5:
         b3:4e:a7:fd:62:ed:a9:9b:37:0f:bd:f4:da:0c:e8:69:b5:f2:
         7e:f8:4d:e2:32:09:be:78:b8:82:8c:ff:1e:d9:f6:6d:07:0d:
         39:f1
-----BEGIN CERTIFICATE-----
MIICjDCCAfWgAwIBAgIBATANBgkqhkiG9w0BAQUFADBUMQswCQYDVQQGEwJDTjEL
MAkGA1UECAwCR1gxCzAJBgNVBAcMAkdMMQ0wCwYDVQQKDARHWE5VMQ0wCwYDVQQL
DARHWE5VMQ0wCwYDVQQDDARHWE5VMB4XDTEzMDQwODA4MTIyOVoXDTE0MDQwODA4
MTIyOVowRzELMAkGA1UEBhMCQ04xCzAJBgNVBAgMAkdYMQ0wCwYDVQQKDARHWE5V
MQ0wCwYDVQQLDARHWE5VMQ0wCwYDVQQDDARHWE5VMIGfMA0GCSqGSIb3DQEBAQUA
A4GNADCBiQKBgQCznI0UeL0Yvh4mw4Mb4iG8Z2xaiDRlDMYhvWOsjFvsTXdw8QO0
qjlwaVafHyUQUxbf85qw/JL5cPsW8kU+AOwi1DJPzLJhxwub/jdQGN01Vx6AtQiQ
s1X6D/OjAi8l28ye+u5GglLaixjeMu0aGuyYdeUv3WGgr6eHpB4yA4elewIDAQAB
o3sweTAJBgNVHRMEAjAAMCwGCWCGSAGG+EIBDQQfFh1PcGVuU1NMIEdlbmVyYXRl
ZCBDZXJ0aWZpY2F0ZTAdBgNVHQ4EFgQUq9W9Hz63ZJuM50zdqP611ovjHVAwHwYD
VR0jBBgwFoAUjhb3cpQOZPC0FsZKKEJL7jO7Qx8wDQYJKoZIhvcNAQEFBQADgYEA
YK7oY37yJ5YVbLYVzrd5EA/xzJiG07g4zquyVu5mYaYcV2pIO97x2AcxHL6FoBVh
nGhbUQBR8ddZrAkkbixsAzWvf7ZrhHf0KiAcFJ1yzTLcuilOcRjN1cq1s06n/WLt
qZs3D7302gzoabXyfvhN4jIJvni4goz/Htn2bQcNOfE=
-----END CERTIFICATE-----
