Certificate:
    Data:
        Version: 3 (0x2)
        Serial Number: 2 (0x2)
    Signature Algorithm: sha1WithRSAEncryption
        Issuer: C=CN, ST=GX, L=GL, O=GXNU, OU=GXNU, CN=GXNU
        Validity
            Not Before: Apr  8 08:21:35 2013 GMT
            Not After : Apr  8 08:21:35 2014 GMT
        Subject: C=CN, ST=GX, O=GXNU, OU=GXNU, CN=GXNU
        Subject Public Key Info:
            Public Key Algorithm: rsaEncryption
                Public-Key: (1024 bit)
                Modulus:
                    00:cb:da:a3:c4:64:fb:ca:68:82:5a:68:1c:64:62:
                    4a:58:cd:13:93:1c:6b:90:69:c4:26:71:12:a6:c4:
                    37:51:15:87:ac:cc:e8:55:0c:03:3d:e7:d3:67:d7:
                    99:71:4d:79:6a:09:69:25:19:4f:d3:de:5b:a2:3f:
                    26:8b:56:eb:42:6d:b0:17:73:7b:31:61:32:70:ad:
                    24:82:ec:10:a9:a7:1e:b2:2a:e6:fa:a0:0d:8b:67:
                    9a:0b:85:69:49:79:6c:c3:e1:a7:59:17:ea:90:11:
                    30:5e:96:db:17:21:a0:2e:f2:8f:d1:6d:f6:2a:7b:
                    22:c7:65:d2:ef:8c:f5:aa:85
                Exponent: 65537 (0x10001)
        X509v3 extensions:
            X509v3 Basic Constraints: 
                CA:FALSE
            Netscape Comment: 
                OpenSSL Generated Certificate
            X509v3 Subject Key Identifier: 
                AB:CA:27:44:9A:5E:F6:63:AC:6D:6D:DE:64:B2:D6:D0:9B:BA:23:A5
            X509v3 Authority Key Identifier: 
                keyid:8E:16:F7:72:94:0E:64:F0:B4:16:C6:4A:28:42:4B:EE:33:BB:43:1F

    Signature Algorithm: sha1WithRSAEncryption
         86:67:fc:58:56:cc:a1:8f:55:16:ea:62:74:81:ff:d6:1a:d6:
         30:a6:d8:1e:94:09:d8:8a:d4:e0:ae:fd:b1:d7:c0:e9:8e:b1:
         fe:f7:67:be:82:c8:1f:0a:ee:70:d0:16:df:0f:ee:52:03:54:
         fd:60:da:3b:de:42:f3:fb:1e:16:80:12:61:41:8b:9d:49:68:
         55:20:23:cb:37:4a:db:6e:b4:69:a8:f7:f1:e7:6f:87:f4:5b:
         06:07:b0:f1:dd:81:76:88:ce:d7:57:e1:ff:e9:e7:da:8b:d4:
         a2:10:b2:9c:9d:3d:9b:26:b4:6d:6d:09:8d:ed:64:99:5c:c5:
         9d:49
-----BEGIN CERTIFICATE-----
MIICjDCCAfWgAwIBAgIBAjANBgkqhkiG9w0BAQUFADBUMQswCQYDVQQGEwJDTjEL
MAkGA1UECAwCR1gxCzAJBgNVBAcMAkdMMQ0wCwYDVQQKDARHWE5VMQ0wCwYDVQQL
DARHWE5VMQ0wCwYDVQQDDARHWE5VMB4XDTEzMDQwODA4MjEzNVoXDTE0MDQwODA4
MjEzNVowRzELMAkGA1UEBhMCQ04xCzAJBgNVBAgMAkdYMQ0wCwYDVQQKDARHWE5V
MQ0wCwYDVQQLDARHWE5VMQ0wCwYDVQQDDARHWE5VMIGfMA0GCSqGSIb3DQEBAQUA
A4GNADCBiQKBgQDL2qPEZPvKaIJaaBxkYkpYzROTHGuQacQmcRKmxDdRFYeszOhV
DAM959Nn15lxTXlqCWklGU/T3luiPyaLVutCbbAXc3sxYTJwrSSC7BCppx6yKub6
oA2LZ5oLhWlJeWzD4adZF+qQETBeltsXIaAu8o/RbfYqeyLHZdLvjPWqhQIDAQAB
o3sweTAJBgNVHRMEAjAAMCwGCWCGSAGG+EIBDQQfFh1PcGVuU1NMIEdlbmVyYXRl
ZCBDZXJ0aWZpY2F0ZTAdBgNVHQ4EFgQUq8onRJpe9mOsbW3eZLLW0Ju6I6UwHwYD
VR0jBBgwFoAUjhb3cpQOZPC0FsZKKEJL7jO7Qx8wDQYJKoZIhvcNAQEFBQADgYEA
hmf8WFbMoY9VFupidIH/1hrWMKbYHpQJ2IrU4K79sdfA6Y6x/vdnvoLIHwrucNAW
3w/uUgNU/WDaO95C8/seFoASYUGLnUloVSAjyzdK2260aaj38edvh/RbBgew8d2B
dojO11fh/+nn2ovUohCynJ09mya0bW0Jje1kmVzFnUk=
-----END CERTIFICATE-----
